; ModuleID = '42/412.cpp'
source_filename = "42/412.cpp"
target datalayout = "e-m:e-p270:32:32-p271:32:32-p272:64:64-i64:64-f80:128-n8:16:32:64-S128"
target triple = "x86_64-pc-linux-gnu"

%"class.std::ios_base::Init" = type { i8 }
%"class.std::basic_istream" = type { i32 (...)**, i64, %"class.std::basic_ios" }
%"class.std::basic_ios" = type { %"class.std::ios_base", %"class.std::basic_ostream"*, i8, i8, %"class.std::basic_streambuf"*, %"class.std::ctype"*, %"class.std::num_put"*, %"class.std::num_get"* }
%"class.std::ios_base" = type { i32 (...)**, i64, i64, i32, i32, i32, %"struct.std::ios_base::_Callback_list"*, %"struct.std::ios_base::_Words", [8 x %"struct.std::ios_base::_Words"], i32, %"struct.std::ios_base::_Words"*, %"class.std::locale" }
%"struct.std::ios_base::_Callback_list" = type { %"struct.std::ios_base::_Callback_list"*, void (i32, %"class.std::ios_base"*, i32)*, i32, i32 }
%"struct.std::ios_base::_Words" = type { i8*, i64 }
%"class.std::locale" = type { %"class.std::locale::_Impl"* }
%"class.std::locale::_Impl" = type { i32, %"class.std::locale::facet"**, i64, %"class.std::locale::facet"**, i8** }
%"class.std::locale::facet" = type <{ i32 (...)**, i32, [4 x i8] }>
%"class.std::basic_ostream" = type { i32 (...)**, %"class.std::basic_ios" }
%"class.std::basic_streambuf" = type { i32 (...)**, i8*, i8*, i8*, i8*, i8*, i8*, %"class.std::locale" }
%"class.std::ctype" = type <{ %"class.std::locale::facet.base", [4 x i8], %struct.__locale_struct*, i8, [7 x i8], i32*, i32*, i16*, i8, [256 x i8], [256 x i8], i8, [6 x i8] }>
%"class.std::locale::facet.base" = type <{ i32 (...)**, i32 }>
%struct.__locale_struct = type { [13 x %struct.__locale_data*], i16*, i32*, i32*, [13 x i8*] }
%struct.__locale_data = type opaque
%"class.std::num_put" = type { %"class.std::locale::facet.base", [4 x i8] }
%"class.std::num_get" = type { %"class.std::locale::facet.base", [4 x i8] }

@_ZStL8__ioinit = internal global %"class.std::ios_base::Init" zeroinitializer, align 1
@__dso_handle = external hidden global i8
@_ZSt3cin = external dso_local global %"class.std::basic_istream", align 8
@_ZSt4cout = external dso_local global %"class.std::basic_ostream", align 8
@.str = private unnamed_addr constant [2 x i8] c" \00", align 1
@llvm.global_ctors = appending global [1 x { i32, void ()*, i8* }] [{ i32, void ()*, i8* } { i32 65535, void ()* @_GLOBAL__sub_I_412.cpp, i8* null }]

; Function Attrs: noinline uwtable
define internal void @__cxx_global_var_init() #0 section ".text.startup" {
  call void @_ZNSt8ios_base4InitC1Ev(%"class.std::ios_base::Init"* @_ZStL8__ioinit)
  %1 = call i32 @__cxa_atexit(void (i8*)* bitcast (void (%"class.std::ios_base::Init"*)* @_ZNSt8ios_base4InitD1Ev to void (i8*)*), i8* getelementptr inbounds (%"class.std::ios_base::Init", %"class.std::ios_base::Init"* @_ZStL8__ioinit, i32 0, i32 0), i8* @__dso_handle) #3
  ret void
}

declare dso_local void @_ZNSt8ios_base4InitC1Ev(%"class.std::ios_base::Init"*) unnamed_addr #1

; Function Attrs: nounwind
declare dso_local void @_ZNSt8ios_base4InitD1Ev(%"class.std::ios_base::Init"*) unnamed_addr #2

; Function Attrs: nounwind
declare dso_local i32 @__cxa_atexit(void (i8*)*, i8*, i8*) #3

; Function Attrs: noinline norecurse uwtable
define dso_local i32 @main() #4 {
  %1 = alloca i32, align 4
  %2 = alloca i32, align 4
  %3 = alloca i32, align 4
  %4 = alloca i8*, align 8
  %5 = alloca i64, align 8
  %6 = alloca i32, align 4
  %7 = alloca i32, align 4
  %8 = alloca i32, align 4
  %9 = alloca i32, align 4
  store i32 0, i32* %1, align 4
  %10 = call dereferenceable(280) %"class.std::basic_istream"* @_ZNSirsERi(%"class.std::basic_istream"* @_ZSt3cin, i32* dereferenceable(4) %2)
  %11 = load i32, i32* %2, align 4
  %12 = zext i32 %11 to i64
  %13 = call i8* @llvm.stacksave()
  store i8* %13, i8** %4, align 8
  %14 = alloca i32, i64 %12, align 16
  store i64 %12, i64* %5, align 8
  store i32 0, i32* %6, align 4
  br label %15

15:                                               ; preds = %25, %0
  %16 = load i32, i32* %6, align 4
  %17 = load i32, i32* %2, align 4
  %18 = sub nsw i32 %17, 1
  %19 = icmp sle i32 %16, %18
  br i1 %19, label %20, label %28

20:                                               ; preds = %15
  %21 = load i32, i32* %6, align 4
  %22 = sext i32 %21 to i64
  %23 = getelementptr inbounds i32, i32* %14, i64 %22
  %24 = call dereferenceable(280) %"class.std::basic_istream"* @_ZNSirsERi(%"class.std::basic_istream"* @_ZSt3cin, i32* dereferenceable(4) %23)
  br label %25

25:                                               ; preds = %20
  %26 = load i32, i32* %6, align 4
  %27 = add nsw i32 %26, 1
  store i32 %27, i32* %6, align 4
  br label %15

28:                                               ; preds = %15
  %29 = call dereferenceable(280) %"class.std::basic_istream"* @_ZNSirsERi(%"class.std::basic_istream"* @_ZSt3cin, i32* dereferenceable(4) %3)
  store i32 0, i32* %7, align 4
  br label %30

30:                                               ; preds = %67, %28
  %31 = load i32, i32* %7, align 4
  %32 = load i32, i32* %2, align 4
  %33 = sub nsw i32 %32, 1
  %34 = icmp sle i32 %31, %33
  br i1 %34, label %35, label %70

35:                                               ; preds = %30
  %36 = load i32, i32* %7, align 4
  %37 = sext i32 %36 to i64
  %38 = getelementptr inbounds i32, i32* %14, i64 %37
  %39 = load i32, i32* %38, align 4
  %40 = load i32, i32* %3, align 4
  %41 = icmp eq i32 %39, %40
  br i1 %41, label %42, label %66

42:                                               ; preds = %35
  %43 = load i32, i32* %7, align 4
  store i32 %43, i32* %8, align 4
  br label %44

44:                                               ; preds = %58, %42
  %45 = load i32, i32* %8, align 4
  %46 = load i32, i32* %2, align 4
  %47 = sub nsw i32 %46, 2
  %48 = icmp sle i32 %45, %47
  br i1 %48, label %49, label %61

49:                                               ; preds = %44
  %50 = load i32, i32* %8, align 4
  %51 = add nsw i32 %50, 1
  %52 = sext i32 %51 to i64
  %53 = getelementptr inbounds i32, i32* %14, i64 %52
  %54 = load i32, i32* %53, align 4
  %55 = load i32, i32* %8, align 4
  %56 = sext i32 %55 to i64
  %57 = getelementptr inbounds i32, i32* %14, i64 %56
  store i32 %54, i32* %57, align 4
  br label %58

58:                                               ; preds = %49
  %59 = load i32, i32* %8, align 4
  %60 = add nsw i32 %59, 1
  store i32 %60, i32* %8, align 4
  br label %44

61:                                               ; preds = %44
  %62 = load i32, i32* %7, align 4
  %63 = sub nsw i32 %62, 1
  store i32 %63, i32* %7, align 4
  %64 = load i32, i32* %2, align 4
  %65 = sub nsw i32 %64, 1
  store i32 %65, i32* %2, align 4
  br label %66

66:                                               ; preds = %61, %35
  br label %67

67:                                               ; preds = %66
  %68 = load i32, i32* %7, align 4
  %69 = add nsw i32 %68, 1
  store i32 %69, i32* %7, align 4
  br label %30

70:                                               ; preds = %30
  store i32 0, i32* %9, align 4
  br label %71

71:                                               ; preds = %83, %70
  %72 = load i32, i32* %9, align 4
  %73 = load i32, i32* %2, align 4
  %74 = sub nsw i32 %73, 2
  %75 = icmp sle i32 %72, %74
  br i1 %75, label %76, label %86

76:                                               ; preds = %71
  %77 = load i32, i32* %9, align 4
  %78 = sext i32 %77 to i64
  %79 = getelementptr inbounds i32, i32* %14, i64 %78
  %80 = load i32, i32* %79, align 4
  %81 = call dereferenceable(272) %"class.std::basic_ostream"* @_ZNSolsEi(%"class.std::basic_ostream"* @_ZSt4cout, i32 %80)
  %82 = call dereferenceable(272) %"class.std::basic_ostream"* @_ZStlsISt11char_traitsIcEERSt13basic_ostreamIcT_ES5_PKc(%"class.std::basic_ostream"* dereferenceable(272) %81, i8* getelementptr inbounds ([2 x i8], [2 x i8]* @.str, i64 0, i64 0))
  br label %83

83:                                               ; preds = %76
  %84 = load i32, i32* %9, align 4
  %85 = add nsw i32 %84, 1
  store i32 %85, i32* %9, align 4
  br label %71

86:                                               ; preds = %71
  %87 = load i32, i32* %2, align 4
  %88 = sub nsw i32 %87, 1
  %89 = sext i32 %88 to i64
  %90 = getelementptr inbounds i32, i32* %14, i64 %89
  %91 = load i32, i32* %90, align 4
  %92 = call dereferenceable(272) %"class.std::basic_ostream"* @_ZNSolsEi(%"class.std::basic_ostream"* @_ZSt4cout, i32 %91)
  %93 = call dereferenceable(272) %"class.std::basic_ostream"* @_ZNSolsEPFRSoS_E(%"class.std::basic_ostream"* %92, %"class.std::basic_ostream"* (%"class.std::basic_ostream"*)* @_ZSt4endlIcSt11char_traitsIcEERSt13basic_ostreamIT_T0_ES6_)
  store i32 0, i32* %1, align 4
  %94 = load i8*, i8** %4, align 8
  call void @llvm.stackrestore(i8* %94)
  %95 = load i32, i32* %1, align 4
  ret i32 %95
}

declare dso_local dereferenceable(280) %"class.std::basic_istream"* @_ZNSirsERi(%"class.std::basic_istream"*, i32* dereferenceable(4)) #1

; Function Attrs: nounwind
declare i8* @llvm.stacksave() #3

declare dso_local dereferenceable(272) %"class.std::basic_ostream"* @_ZStlsISt11char_traitsIcEERSt13basic_ostreamIcT_ES5_PKc(%"class.std::basic_ostream"* dereferenceable(272), i8*) #1

declare dso_local dereferenceable(272) %"class.std::basic_ostream"* @_ZNSolsEi(%"class.std::basic_ostream"*, i32) #1

declare dso_local dereferenceable(272) %"class.std::basic_ostream"* @_ZNSolsEPFRSoS_E(%"class.std::basic_ostream"*, %"class.std::basic_ostream"* (%"class.std::basic_ostream"*)*) #1

declare dso_local dereferenceable(272) %"class.std::basic_ostream"* @_ZSt4endlIcSt11char_traitsIcEERSt13basic_ostreamIT_T0_ES6_(%"class.std::basic_ostream"* dereferenceable(272)) #1

; Function Attrs: nounwind
declare void @llvm.stackrestore(i8*) #3

; Function Attrs: noinline uwtable
define internal void @_GLOBAL__sub_I_412.cpp() #0 section ".text.startup" {
  call void @__cxx_global_var_init()
  ret void
}


!llvm.module.flags = !{!0}
!llvm.ident = !{!1}

!0 = !{i32 1, !"wchar_size", i32 4}
!1 = !{!"clang version 10.0.0-4ubuntu1 "}
