; ModuleID = 'source-C-CXX/41/412.cpp'
source_filename = "source-C-CXX/41/412.cpp"
target datalayout = "e-m:e-p270:32:32-p271:32:32-p272:64:64-i64:64-f80:128-n8:16:32:64-S128"
target triple = "x86_64-pc-linux-gnu"

%"class.std::ios_base::Init" = type { i8 }
%"class.std::basic_istream" = type { i32 (...)**, i64, %"class.std::basic_ios" }
%"class.std::basic_ios" = type { %"class.std::ios_base", %"class.std::basic_ostream"*, i8, i8, %"class.std::basic_streambuf"*, %"class.std::ctype"*, %"class.std::num_put"*, %"class.std::num_get"* }
%"class.std::ios_base" = type { i32 (...)**, i64, i64, i32, i32, i32, %"struct.std::ios_base::_Callback_list"*, %"struct.std::ios_base::_Words", [8 x %"struct.std::ios_base::_Words"], i32, %"struct.std::ios_base::_Words"*, %"class.std::locale" }
%"struct.std::ios_base::_Callback_list" = type { %"struct.std::ios_base::_Callback_list"*, void (i32, %"class.std::ios_base"*, i32)*, i32, i32 }
%"struct.std::ios_base::_Words" = type { i8*, i64 }
%"class.std::locale" = type { %"class.std::locale::_Impl"* }
%"class.std::locale::_Impl" = type { i32, %"class.std::locale::facet"**, i64, %"class.std::locale::facet"**, i8** }
%"class.std::locale::facet" = type <{ i32 (...)**, i32, [4 x i8] }>
%"class.std::basic_ostream" = type { i32 (...)**, %"class.std::basic_ios" }
%"class.std::basic_streambuf" = type { i32 (...)**, i8*, i8*, i8*, i8*, i8*, i8*, %"class.std::locale" }
%"class.std::ctype" = type <{ %"class.std::locale::facet.base", [4 x i8], %struct.__locale_struct*, i8, [7 x i8], i32*, i32*, i16*, i8, [256 x i8], [256 x i8], i8, [6 x i8] }>
%"class.std::locale::facet.base" = type <{ i32 (...)**, i32 }>
%struct.__locale_struct = type { [13 x %struct.__locale_data*], i16*, i32*, i32*, [13 x i8*] }
%struct.__locale_data = type opaque
%"class.std::num_put" = type { %"class.std::locale::facet.base", [4 x i8] }
%"class.std::num_get" = type { %"class.std::locale::facet.base", [4 x i8] }

@_ZStL8__ioinit = internal global %"class.std::ios_base::Init" zeroinitializer, align 1
@__dso_handle = external hidden global i8
@_ZSt3cin = external global %"class.std::basic_istream", align 8
@_ZSt4cout = external global %"class.std::basic_ostream", align 8
@.str = private unnamed_addr constant [2 x i8] c" \00", align 1
@llvm.global_ctors = appending global [1 x { i32, void ()*, i8* }] [{ i32, void ()*, i8* } { i32 65535, void ()* @_GLOBAL__sub_I_412.cpp, i8* null }]

declare void @_ZNSt8ios_base4InitC1Ev(%"class.std::ios_base::Init"* nonnull align 1 dereferenceable(1)) unnamed_addr #0

; Function Attrs: nounwind
declare void @_ZNSt8ios_base4InitD1Ev(%"class.std::ios_base::Init"* nonnull align 1 dereferenceable(1)) unnamed_addr #1

; Function Attrs: nofree nounwind
declare i32 @__cxa_atexit(void (i8*)*, i8*, i8*) local_unnamed_addr #2

; Function Attrs: mustprogress norecurse sspstrong uwtable
define dso_local i32 @main() local_unnamed_addr #3 {
  %1 = alloca i32, align 4
  %2 = alloca i32, align 4
  %3 = bitcast i32* %1 to i8*
  call void @llvm.lifetime.start.p0i8(i64 4, i8* nonnull %3) #8
  %4 = bitcast i32* %2 to i8*
  call void @llvm.lifetime.start.p0i8(i64 4, i8* nonnull %4) #8
  %5 = call nonnull align 8 dereferenceable(16) %"class.std::basic_istream"* @_ZNSirsERi(%"class.std::basic_istream"* nonnull align 8 dereferenceable(16) @_ZSt3cin, i32* nonnull align 4 dereferenceable(4) %1)
  %6 = load i32, i32* %1, align 4, !tbaa !5
  %7 = zext i32 %6 to i64
  %8 = call i8* @llvm.stacksave()
  %9 = alloca i32, i64 %7, align 16
  %10 = load i32, i32* %1, align 4, !tbaa !5
  %11 = icmp sgt i32 %10, 0
  br i1 %11, label %17, label %12

12:                                               ; preds = %17, %0
  %13 = call nonnull align 8 dereferenceable(16) %"class.std::basic_istream"* @_ZNSirsERi(%"class.std::basic_istream"* nonnull align 8 dereferenceable(16) @_ZSt3cin, i32* nonnull align 4 dereferenceable(4) %2)
  %14 = load i32, i32* %2, align 4
  %15 = load i32, i32* %1, align 4, !tbaa !5
  %16 = icmp sgt i32 %15, 0
  br i1 %16, label %27, label %117

17:                                               ; preds = %0, %17
  %18 = phi i64 [ %21, %17 ], [ 0, %0 ]
  %19 = getelementptr inbounds i32, i32* %9, i64 %18
  %20 = call nonnull align 8 dereferenceable(16) %"class.std::basic_istream"* @_ZNSirsERi(%"class.std::basic_istream"* nonnull align 8 dereferenceable(16) @_ZSt3cin, i32* nonnull align 4 dereferenceable(4) %19)
  %21 = add nuw nsw i64 %18, 1
  %22 = load i32, i32* %1, align 4, !tbaa !5
  %23 = sext i32 %22 to i64
  %24 = icmp slt i64 %21, %23
  br i1 %24, label %17, label %12, !llvm.loop !9

25:                                               ; preds = %112
  %26 = icmp slt i32 %113, 2
  br i1 %26, label %117, label %153

27:                                               ; preds = %12, %112
  %28 = phi i32 [ %113, %112 ], [ %15, %12 ]
  %29 = phi i32 [ %115, %112 ], [ 0, %12 ]
  %30 = sext i32 %29 to i64
  %31 = getelementptr inbounds i32, i32* %9, i64 %30
  %32 = load i32, i32* %31, align 4, !tbaa !5
  %33 = icmp eq i32 %32, %14
  br i1 %33, label %34, label %112

34:                                               ; preds = %27
  %35 = add nsw i32 %28, -2
  %36 = icmp sgt i32 %29, %35
  %37 = add nsw i32 %28, -1
  br i1 %36, label %103, label %38

38:                                               ; preds = %34
  %39 = sext i32 %37 to i64
  %40 = sub nsw i64 %39, %30
  %41 = icmp ult i64 %40, 8
  br i1 %41, label %101, label %42

42:                                               ; preds = %38
  %43 = and i64 %40, -8
  %44 = add nsw i64 %43, %30
  %45 = add nsw i64 %43, -8
  %46 = lshr exact i64 %45, 3
  %47 = add nuw nsw i64 %46, 1
  %48 = and i64 %47, 1
  %49 = icmp eq i64 %45, 0
  br i1 %49, label %83, label %50

50:                                               ; preds = %42
  %51 = and i64 %47, 4611686018427387902
  br label %52

52:                                               ; preds = %52, %50
  %53 = phi i64 [ 0, %50 ], [ %80, %52 ]
  %54 = phi i64 [ %51, %50 ], [ %81, %52 ]
  %55 = add i64 %53, %30
  %56 = add nsw i64 %55, 1
  %57 = getelementptr inbounds i32, i32* %9, i64 %56
  %58 = bitcast i32* %57 to <4 x i32>*
  %59 = load <4 x i32>, <4 x i32>* %58, align 4, !tbaa !5
  %60 = getelementptr inbounds i32, i32* %57, i64 4
  %61 = bitcast i32* %60 to <4 x i32>*
  %62 = load <4 x i32>, <4 x i32>* %61, align 4, !tbaa !5
  %63 = getelementptr inbounds i32, i32* %9, i64 %55
  %64 = bitcast i32* %63 to <4 x i32>*
  store <4 x i32> %59, <4 x i32>* %64, align 4, !tbaa !5
  %65 = getelementptr inbounds i32, i32* %63, i64 4
  %66 = bitcast i32* %65 to <4 x i32>*
  store <4 x i32> %62, <4 x i32>* %66, align 4, !tbaa !5
  %67 = or i64 %53, 8
  %68 = add i64 %67, %30
  %69 = add nsw i64 %68, 1
  %70 = getelementptr inbounds i32, i32* %9, i64 %69
  %71 = bitcast i32* %70 to <4 x i32>*
  %72 = load <4 x i32>, <4 x i32>* %71, align 4, !tbaa !5
  %73 = getelementptr inbounds i32, i32* %70, i64 4
  %74 = bitcast i32* %73 to <4 x i32>*
  %75 = load <4 x i32>, <4 x i32>* %74, align 4, !tbaa !5
  %76 = getelementptr inbounds i32, i32* %9, i64 %68
  %77 = bitcast i32* %76 to <4 x i32>*
  store <4 x i32> %72, <4 x i32>* %77, align 4, !tbaa !5
  %78 = getelementptr inbounds i32, i32* %76, i64 4
  %79 = bitcast i32* %78 to <4 x i32>*
  store <4 x i32> %75, <4 x i32>* %79, align 4, !tbaa !5
  %80 = add nuw i64 %53, 16
  %81 = add i64 %54, -2
  %82 = icmp eq i64 %81, 0
  br i1 %82, label %83, label %52, !llvm.loop !11

83:                                               ; preds = %52, %42
  %84 = phi i64 [ 0, %42 ], [ %80, %52 ]
  %85 = icmp eq i64 %48, 0
  br i1 %85, label %99, label %86

86:                                               ; preds = %83
  %87 = add i64 %84, %30
  %88 = add nsw i64 %87, 1
  %89 = getelementptr inbounds i32, i32* %9, i64 %88
  %90 = bitcast i32* %89 to <4 x i32>*
  %91 = load <4 x i32>, <4 x i32>* %90, align 4, !tbaa !5
  %92 = getelementptr inbounds i32, i32* %89, i64 4
  %93 = bitcast i32* %92 to <4 x i32>*
  %94 = load <4 x i32>, <4 x i32>* %93, align 4, !tbaa !5
  %95 = getelementptr inbounds i32, i32* %9, i64 %87
  %96 = bitcast i32* %95 to <4 x i32>*
  store <4 x i32> %91, <4 x i32>* %96, align 4, !tbaa !5
  %97 = getelementptr inbounds i32, i32* %95, i64 4
  %98 = bitcast i32* %97 to <4 x i32>*
  store <4 x i32> %94, <4 x i32>* %98, align 4, !tbaa !5
  br label %99

99:                                               ; preds = %83, %86
  %100 = icmp eq i64 %40, %43
  br i1 %100, label %103, label %101

101:                                              ; preds = %38, %99
  %102 = phi i64 [ %30, %38 ], [ %44, %99 ]
  br label %105

103:                                              ; preds = %105, %99, %34
  %104 = add nsw i32 %29, -1
  store i32 %37, i32* %1, align 4, !tbaa !5
  br label %112

105:                                              ; preds = %101, %105
  %106 = phi i64 [ %107, %105 ], [ %102, %101 ]
  %107 = add nsw i64 %106, 1
  %108 = getelementptr inbounds i32, i32* %9, i64 %107
  %109 = load i32, i32* %108, align 4, !tbaa !5
  %110 = getelementptr inbounds i32, i32* %9, i64 %106
  store i32 %109, i32* %110, align 4, !tbaa !5
  %111 = icmp eq i64 %107, %39
  br i1 %111, label %103, label %105, !llvm.loop !13

112:                                              ; preds = %27, %103
  %113 = phi i32 [ %37, %103 ], [ %28, %27 ]
  %114 = phi i32 [ %104, %103 ], [ %29, %27 ]
  %115 = add nsw i32 %114, 1
  %116 = icmp slt i32 %115, %113
  br i1 %116, label %27, label %25, !llvm.loop !15

117:                                              ; preds = %153, %12, %25
  %118 = phi i32 [ %113, %25 ], [ %15, %12 ], [ %160, %153 ]
  %119 = add nsw i32 %118, -1
  %120 = sext i32 %119 to i64
  %121 = getelementptr inbounds i32, i32* %9, i64 %120
  %122 = load i32, i32* %121, align 4, !tbaa !5
  %123 = call nonnull align 8 dereferenceable(8) %"class.std::basic_ostream"* @_ZNSolsEi(%"class.std::basic_ostream"* nonnull align 8 dereferenceable(8) @_ZSt4cout, i32 %122)
  %124 = bitcast %"class.std::basic_ostream"* %123 to i8**
  %125 = load i8*, i8** %124, align 8, !tbaa !16
  %126 = getelementptr i8, i8* %125, i64 -24
  %127 = bitcast i8* %126 to i64*
  %128 = load i64, i64* %127, align 8
  %129 = bitcast %"class.std::basic_ostream"* %123 to i8*
  %130 = add nsw i64 %128, 240
  %131 = getelementptr inbounds i8, i8* %129, i64 %130
  %132 = bitcast i8* %131 to %"class.std::ctype"**
  %133 = load %"class.std::ctype"*, %"class.std::ctype"** %132, align 8, !tbaa !18
  %134 = icmp eq %"class.std::ctype"* %133, null
  br i1 %134, label %135, label %136

135:                                              ; preds = %117
  call void @_ZSt16__throw_bad_castv() #9
  unreachable

136:                                              ; preds = %117
  %137 = getelementptr inbounds %"class.std::ctype", %"class.std::ctype"* %133, i64 0, i32 8
  %138 = load i8, i8* %137, align 8, !tbaa !22
  %139 = icmp eq i8 %138, 0
  br i1 %139, label %143, label %140

140:                                              ; preds = %136
  %141 = getelementptr inbounds %"class.std::ctype", %"class.std::ctype"* %133, i64 0, i32 9, i64 10
  %142 = load i8, i8* %141, align 1, !tbaa !24
  br label %149

143:                                              ; preds = %136
  call void @_ZNKSt5ctypeIcE13_M_widen_initEv(%"class.std::ctype"* nonnull align 8 dereferenceable(570) %133)
  %144 = bitcast %"class.std::ctype"* %133 to i8 (%"class.std::ctype"*, i8)***
  %145 = load i8 (%"class.std::ctype"*, i8)**, i8 (%"class.std::ctype"*, i8)*** %144, align 8, !tbaa !16
  %146 = getelementptr inbounds i8 (%"class.std::ctype"*, i8)*, i8 (%"class.std::ctype"*, i8)** %145, i64 6
  %147 = load i8 (%"class.std::ctype"*, i8)*, i8 (%"class.std::ctype"*, i8)** %146, align 8
  %148 = call signext i8 %147(%"class.std::ctype"* nonnull align 8 dereferenceable(570) %133, i8 signext 10)
  br label %149

149:                                              ; preds = %140, %143
  %150 = phi i8 [ %142, %140 ], [ %148, %143 ]
  %151 = call nonnull align 8 dereferenceable(8) %"class.std::basic_ostream"* @_ZNSo3putEc(%"class.std::basic_ostream"* nonnull align 8 dereferenceable(8) %123, i8 signext %150)
  %152 = call nonnull align 8 dereferenceable(8) %"class.std::basic_ostream"* @_ZNSo5flushEv(%"class.std::basic_ostream"* nonnull align 8 dereferenceable(8) %151)
  call void @llvm.stackrestore(i8* %8)
  call void @llvm.lifetime.end.p0i8(i64 4, i8* nonnull %4) #8
  call void @llvm.lifetime.end.p0i8(i64 4, i8* nonnull %3) #8
  ret i32 0

153:                                              ; preds = %25, %153
  %154 = phi i64 [ %159, %153 ], [ 0, %25 ]
  %155 = getelementptr inbounds i32, i32* %9, i64 %154
  %156 = load i32, i32* %155, align 4, !tbaa !5
  %157 = call nonnull align 8 dereferenceable(8) %"class.std::basic_ostream"* @_ZNSolsEi(%"class.std::basic_ostream"* nonnull align 8 dereferenceable(8) @_ZSt4cout, i32 %156)
  %158 = call nonnull align 8 dereferenceable(8) %"class.std::basic_ostream"* @_ZSt16__ostream_insertIcSt11char_traitsIcEERSt13basic_ostreamIT_T0_ES6_PKS3_l(%"class.std::basic_ostream"* nonnull align 8 dereferenceable(8) %157, i8* nonnull getelementptr inbounds ([2 x i8], [2 x i8]* @.str, i64 0, i64 0), i64 1)
  %159 = add nuw nsw i64 %154, 1
  %160 = load i32, i32* %1, align 4, !tbaa !5
  %161 = add nsw i32 %160, -2
  %162 = sext i32 %161 to i64
  %163 = icmp slt i64 %154, %162
  br i1 %163, label %153, label %117, !llvm.loop !25
}

; Function Attrs: argmemonly mustprogress nofree nosync nounwind willreturn
declare void @llvm.lifetime.start.p0i8(i64 immarg, i8* nocapture) #4

declare nonnull align 8 dereferenceable(16) %"class.std::basic_istream"* @_ZNSirsERi(%"class.std::basic_istream"* nonnull align 8 dereferenceable(16), i32* nonnull align 4 dereferenceable(4)) local_unnamed_addr #0

; Function Attrs: mustprogress nofree nosync nounwind willreturn
declare i8* @llvm.stacksave() #5

; Function Attrs: argmemonly mustprogress nofree nosync nounwind willreturn
declare void @llvm.lifetime.end.p0i8(i64 immarg, i8* nocapture) #4

declare nonnull align 8 dereferenceable(8) %"class.std::basic_ostream"* @_ZNSolsEi(%"class.std::basic_ostream"* nonnull align 8 dereferenceable(8), i32) local_unnamed_addr #0

; Function Attrs: mustprogress nofree nosync nounwind willreturn
declare void @llvm.stackrestore(i8*) #5

declare nonnull align 8 dereferenceable(8) %"class.std::basic_ostream"* @_ZSt16__ostream_insertIcSt11char_traitsIcEERSt13basic_ostreamIT_T0_ES6_PKS3_l(%"class.std::basic_ostream"* nonnull align 8 dereferenceable(8), i8*, i64) local_unnamed_addr #0

declare nonnull align 8 dereferenceable(8) %"class.std::basic_ostream"* @_ZNSo3putEc(%"class.std::basic_ostream"* nonnull align 8 dereferenceable(8), i8 signext) local_unnamed_addr #0

declare nonnull align 8 dereferenceable(8) %"class.std::basic_ostream"* @_ZNSo5flushEv(%"class.std::basic_ostream"* nonnull align 8 dereferenceable(8)) local_unnamed_addr #0

; Function Attrs: noreturn
declare void @_ZSt16__throw_bad_castv() local_unnamed_addr #6

declare void @_ZNKSt5ctypeIcE13_M_widen_initEv(%"class.std::ctype"* nonnull align 8 dereferenceable(570)) local_unnamed_addr #0

; Function Attrs: sspstrong uwtable
define internal void @_GLOBAL__sub_I_412.cpp() #7 section ".text.startup" {
  tail call void @_ZNSt8ios_base4InitC1Ev(%"class.std::ios_base::Init"* nonnull align 1 dereferenceable(1) @_ZStL8__ioinit)
  %1 = tail call i32 @__cxa_atexit(void (i8*)* bitcast (void (%"class.std::ios_base::Init"*)* @_ZNSt8ios_base4InitD1Ev to void (i8*)*), i8* getelementptr inbounds (%"class.std::ios_base::Init", %"class.std::ios_base::Init"* @_ZStL8__ioinit, i64 0, i32 0), i8* nonnull @__dso_handle) #8
  ret void
}


!llvm.module.flags = !{!0, !1, !2, !3}
!llvm.ident = !{!4}

!0 = !{i32 1, !"wchar_size", i32 4}
!1 = !{i32 7, !"PIC Level", i32 2}
!2 = !{i32 7, !"PIE Level", i32 2}
!3 = !{i32 7, !"uwtable", i32 1}
!4 = !{!"clang version 13.0.0"}
!5 = !{!6, !6, i64 0}
!6 = !{!"int", !7, i64 0}
!7 = !{!"omnipotent char", !8, i64 0}
!8 = !{!"Simple C++ TBAA"}
!9 = distinct !{!9, !10}
!10 = !{!"llvm.loop.mustprogress"}
!11 = distinct !{!11, !10, !12}
!12 = !{!"llvm.loop.isvectorized", i32 1}
!13 = distinct !{!13, !10, !14, !12}
!14 = !{!"llvm.loop.unroll.runtime.disable"}
!15 = distinct !{!15, !10}
!16 = !{!17, !17, i64 0}
!17 = !{!"vtable pointer", !8, i64 0}
!18 = !{!19, !20, i64 240}
!19 = !{!"_ZTSSt9basic_iosIcSt11char_traitsIcEE", !20, i64 216, !7, i64 224, !21, i64 225, !20, i64 232, !20, i64 240, !20, i64 248, !20, i64 256}
!20 = !{!"any pointer", !7, i64 0}
!21 = !{!"bool", !7, i64 0}
!22 = !{!23, !7, i64 56}
!23 = !{!"_ZTSSt5ctypeIcE", !20, i64 16, !21, i64 24, !20, i64 32, !20, i64 40, !20, i64 48, !7, i64 56, !7, i64 57, !7, i64 313, !7, i64 569}
!24 = !{!7, !7, i64 0}
!25 = distinct !{!25, !10}
